; Function Attrs: nofree nosync nounwind memory(readwrite, inaccessiblemem: none) uwtable
define void @Llb_ManGroupMarkNodes_rec(ptr noundef readonly captures(none) %0, ptr noundef captures(none) %1) local_unnamed_addr #5 {
  %3 = getelementptr i8, ptr %0, i64 312
  %.val24 = load i32, ptr %3, align 8, !tbaa !28
  %4 = getelementptr i8, ptr %1, i64 32
  %.val1325 = load i32, ptr %4, align 8, !tbaa !39
  %.not26 = icmp eq i32 %.val1325, %.val24
  br i1 %.not26, label %.loopexit, label %.lr.ph

.lr.ph:                                           ; preds = %2, %tailrecurse
  %.val1329 = phi i32 [ %.val13, %tailrecurse ], [ %.val1325, %2 ]
  %5 = phi ptr [ %15, %tailrecurse ], [ %4, %2 ]
  %.val28 = phi i32 [ %.val, %tailrecurse ], [ %.val24, %2 ]
  %.tr2127 = phi ptr [ %14, %tailrecurse ], [ %1, %2 ]
  %6 = add nsw i32 %.val28, -1
  %.not20 = icmp eq i32 %.val1329, %6
  store i32 %.val28, ptr %5, align 8, !tbaa !39
  br i1 %.not20, label %.loopexit, label %tailrecurse

tailrecurse:                                      ; preds = %.lr.ph
  %7 = getelementptr i8, ptr %.tr2127, i64 8
  %.val16 = load ptr, ptr %7, align 8, !tbaa !40
  %8 = ptrtoint ptr %.val16 to i64
  %9 = and i64 %8, -2
  %10 = inttoptr i64 %9 to ptr
  tail call void @Llb_ManGroupMarkNodes_rec(ptr noundef nonnull %0, ptr noundef %10)
  %11 = getelementptr i8, ptr %.tr2127, i64 16
  %.val17 = load ptr, ptr %11, align 8, !tbaa !41
  %12 = ptrtoint ptr %.val17 to i64
  %13 = and i64 %12, -2
  %14 = inttoptr i64 %13 to ptr
  %.val = load i32, ptr %3, align 8, !tbaa !28
  %15 = getelementptr i8, ptr %14, i64 32
  %.val13 = load i32, ptr %15, align 8, !tbaa !39
  %.not = icmp eq i32 %.val13, %.val
  br i1 %.not, label %.loopexit, label %.lr.ph

.loopexit:                                        ; preds = %tailrecurse, %.lr.ph, %2
  ret void
}